target datalayout = "e-m:e-p270:32:32-p271:32:32-p272:64:64-i64:64-i128:128-f80:128-n8:16:32:64-S128"
target triple = "x86_64-pc-linux-gnu"

%struct.CallReply = type { ptr, ptr, ptr, i64, i32, i32, i64, %union.anon, ptr, ptr }
%union.anon = type { %struct.anon }
%struct.anon = type { ptr, ptr }

; Function Attrs: nounwind uwtable
define internal void @freeCallReplyInternal(ptr noundef %0) #0 {
  %2 = alloca ptr, align 8
  %3 = alloca i64, align 8
  %4 = alloca i64, align 8
  store ptr %0, ptr %2, align 8, !tbaa !5
  %5 = load ptr, ptr %2, align 8, !tbaa !5
  %6 = getelementptr inbounds nuw %struct.CallReply, ptr %5, i32 0, i32 4
  %7 = load i32, ptr %6, align 8, !tbaa !16
  %8 = icmp eq i32 %7, 3
  br i1 %8, label %14, label %9

9:                                                ; preds = %1
  %10 = load ptr, ptr %2, align 8, !tbaa !5
  %11 = getelementptr inbounds nuw %struct.CallReply, ptr %10, i32 0, i32 4
  %12 = load i32, ptr %11, align 8, !tbaa !16
  %13 = icmp eq i32 %12, 6
  br i1 %13, label %14, label %35

14:                                               ; preds = %9, %1
  call void @llvm.lifetime.start.p0(i64 8, ptr %3) #6
  store i64 0, ptr %3, align 8, !tbaa !19
  br label %15

15:                                               ; preds = %28, %14
  %16 = load i64, ptr %3, align 8, !tbaa !19
  %17 = load ptr, ptr %2, align 8, !tbaa !5
  %18 = getelementptr inbounds nuw %struct.CallReply, ptr %17, i32 0, i32 6
  %19 = load i64, ptr %18, align 8, !tbaa !20
  %20 = icmp ult i64 %16, %19
  br i1 %20, label %22, label %21

21:                                               ; preds = %15
  call void @llvm.lifetime.end.p0(i64 8, ptr %3) #6
  br label %31

22:                                               ; preds = %15
  %23 = load ptr, ptr %2, align 8, !tbaa !5
  %24 = getelementptr inbounds nuw %struct.CallReply, ptr %23, i32 0, i32 7
  %25 = load ptr, ptr %24, align 8, !tbaa !21
  %26 = load i64, ptr %3, align 8, !tbaa !19
  %27 = getelementptr inbounds nuw %struct.CallReply, ptr %25, i64 %26
  call void @freeCallReplyInternal(ptr noundef %27)
  br label %28

28:                                               ; preds = %22
  %29 = load i64, ptr %3, align 8, !tbaa !19
  %30 = add i64 %29, 1
  store i64 %30, ptr %3, align 8, !tbaa !19
  br label %15, !llvm.loop !22

31:                                               ; preds = %21
  %32 = load ptr, ptr %2, align 8, !tbaa !5
  %33 = getelementptr inbounds nuw %struct.CallReply, ptr %32, i32 0, i32 7
  %34 = load ptr, ptr %33, align 8, !tbaa !21
  call void @zfree(ptr noundef %34)
  br label %35

35:                                               ; preds = %31, %9
  %36 = load ptr, ptr %2, align 8, !tbaa !5
  %37 = getelementptr inbounds nuw %struct.CallReply, ptr %36, i32 0, i32 4
  %38 = load i32, ptr %37, align 8, !tbaa !16
  %39 = icmp eq i32 %38, 5
  br i1 %39, label %45, label %40

40:                                               ; preds = %35
  %41 = load ptr, ptr %2, align 8, !tbaa !5
  %42 = getelementptr inbounds nuw %struct.CallReply, ptr %41, i32 0, i32 4
  %43 = load i32, ptr %42, align 8, !tbaa !16
  %44 = icmp eq i32 %43, 11
  br i1 %44, label %45, label %74

45:                                               ; preds = %40, %35
  call void @llvm.lifetime.start.p0(i64 8, ptr %4) #6
  store i64 0, ptr %4, align 8, !tbaa !19
  br label %46

46:                                               ; preds = %67, %45
  %47 = load i64, ptr %4, align 8, !tbaa !19
  %48 = load ptr, ptr %2, align 8, !tbaa !5
  %49 = getelementptr inbounds nuw %struct.CallReply, ptr %48, i32 0, i32 6
  %50 = load i64, ptr %49, align 8, !tbaa !20
  %51 = icmp ult i64 %47, %50
  br i1 %51, label %53, label %52

52:                                               ; preds = %46
  call void @llvm.lifetime.end.p0(i64 8, ptr %4) #6
  br label %70

53:                                               ; preds = %46
  %54 = load ptr, ptr %2, align 8, !tbaa !5
  %55 = getelementptr inbounds nuw %struct.CallReply, ptr %54, i32 0, i32 7
  %56 = load ptr, ptr %55, align 8, !tbaa !21
  %57 = load i64, ptr %4, align 8, !tbaa !19
  %58 = mul i64 %57, 2
  %59 = getelementptr inbounds nuw %struct.CallReply, ptr %56, i64 %58
  call void @freeCallReplyInternal(ptr noundef %59)
  %60 = load ptr, ptr %2, align 8, !tbaa !5
  %61 = getelementptr inbounds nuw %struct.CallReply, ptr %60, i32 0, i32 7
  %62 = load ptr, ptr %61, align 8, !tbaa !21
  %63 = load i64, ptr %4, align 8, !tbaa !19
  %64 = mul i64 %63, 2
  %65 = getelementptr inbounds nuw %struct.CallReply, ptr %62, i64 %64
  %66 = getelementptr inbounds %struct.CallReply, ptr %65, i64 1
  call void @freeCallReplyInternal(ptr noundef %66)
  br label %67

67:                                               ; preds = %53
  %68 = load i64, ptr %4, align 8, !tbaa !19
  %69 = add i64 %68, 1
  store i64 %69, ptr %4, align 8, !tbaa !19
  br label %46, !llvm.loop !24

70:                                               ; preds = %52
  %71 = load ptr, ptr %2, align 8, !tbaa !5
  %72 = getelementptr inbounds nuw %struct.CallReply, ptr %71, i32 0, i32 7
  %73 = load ptr, ptr %72, align 8, !tbaa !21
  call void @zfree(ptr noundef %73)
  br label %74

74:                                               ; preds = %70, %40
  %75 = load ptr, ptr %2, align 8, !tbaa !5
  %76 = getelementptr inbounds nuw %struct.CallReply, ptr %75, i32 0, i32 9
  %77 = load ptr, ptr %76, align 8, !tbaa !25
  %78 = icmp ne ptr %77, null
  br i1 %78, label %79, label %86

79:                                               ; preds = %74
  %80 = load ptr, ptr %2, align 8, !tbaa !5
  %81 = getelementptr inbounds nuw %struct.CallReply, ptr %80, i32 0, i32 9
  %82 = load ptr, ptr %81, align 8, !tbaa !25
  call void @freeCallReplyInternal(ptr noundef %82)
  %83 = load ptr, ptr %2, align 8, !tbaa !5
  %84 = getelementptr inbounds nuw %struct.CallReply, ptr %83, i32 0, i32 9
  %85 = load ptr, ptr %84, align 8, !tbaa !25
  call void @zfree(ptr noundef %85)
  br label %86

86:                                               ; preds = %79, %74
  ret void
}