; Function Attrs: nounwind uwtable
define internal fastcc void @freeCallReplyInternal(ptr noundef readonly captures(none) %0) unnamed_addr #0 {
  %2 = getelementptr inbounds nuw i8, ptr %0, i64 32
  %3 = load i32, ptr %2, align 8, !tbaa !15
  switch i32 %3, label %16 [
    i32 3, label %4
    i32 6, label %4
  ]

4:                                                ; preds = %1, %1
  %5 = getelementptr inbounds nuw i8, ptr %0, i64 40
  %6 = load i64, ptr %5, align 8, !tbaa !18
  %.not29 = icmp eq i64 %6, 0
  br i1 %.not29, label %._crit_edge, label %.lr.ph

.lr.ph:                                           ; preds = %4
  %7 = getelementptr inbounds nuw i8, ptr %0, i64 48
  br label %10

._crit_edge:                                      ; preds = %10, %4
  %8 = getelementptr inbounds nuw i8, ptr %0, i64 48
  %9 = load ptr, ptr %8, align 8, !tbaa !19
  tail call void @zfree(ptr noundef %9) #8
  %.pr = load i32, ptr %2, align 8, !tbaa !15
  br label %16

10:                                               ; preds = %.lr.ph, %10
  %.02024 = phi i64 [ 0, %.lr.ph ], [ %13, %10 ]
  %11 = load ptr, ptr %7, align 8, !tbaa !19
  %12 = getelementptr inbounds nuw %struct.CallReply, ptr %11, i64 %.02024
  tail call fastcc void @freeCallReplyInternal(ptr noundef %12)
  %13 = add nuw i64 %.02024, 1
  %14 = load i64, ptr %5, align 8, !tbaa !18
  %15 = icmp ult i64 %13, %14
  br i1 %15, label %10, label %._crit_edge, !llvm.loop !20

16:                                               ; preds = %1, %._crit_edge
  %17 = phi i32 [ %3, %1 ], [ %.pr, %._crit_edge ]
  switch i32 %17, label %34 [
    i32 5, label %18
    i32 11, label %18
  ]

18:                                               ; preds = %16, %16
  %19 = getelementptr inbounds nuw i8, ptr %0, i64 40
  %20 = load i64, ptr %19, align 8, !tbaa !18
  %.not30 = icmp eq i64 %20, 0
  br i1 %.not30, label %._crit_edge28, label %.lr.ph27

.lr.ph27:                                         ; preds = %18
  %21 = getelementptr inbounds nuw i8, ptr %0, i64 48
  br label %24

._crit_edge28:                                    ; preds = %24, %18
  %22 = getelementptr inbounds nuw i8, ptr %0, i64 48
  %23 = load ptr, ptr %22, align 8, !tbaa !19
  tail call void @zfree(ptr noundef %23) #8
  br label %34

24:                                               ; preds = %.lr.ph27, %24
  %.025 = phi i64 [ 0, %.lr.ph27 ], [ %31, %24 ]
  %25 = load ptr, ptr %21, align 8, !tbaa !19
  %26 = shl i64 %.025, 1
  %27 = getelementptr inbounds nuw %struct.CallReply, ptr %25, i64 %26
  tail call fastcc void @freeCallReplyInternal(ptr noundef %27)
  %28 = load ptr, ptr %21, align 8, !tbaa !19
  %29 = getelementptr inbounds nuw %struct.CallReply, ptr %28, i64 %26
  %30 = getelementptr inbounds nuw i8, ptr %29, i64 80
  tail call fastcc void @freeCallReplyInternal(ptr noundef nonnull %30)
  %31 = add nuw i64 %.025, 1
  %32 = load i64, ptr %19, align 8, !tbaa !18
  %33 = icmp ult i64 %31, %32
  br i1 %33, label %24, label %._crit_edge28, !llvm.loop !22

34:                                               ; preds = %16, %._crit_edge28
  %35 = getelementptr inbounds nuw i8, ptr %0, i64 72
  %36 = load ptr, ptr %35, align 8, !tbaa !23
  %.not = icmp eq ptr %36, null
  br i1 %.not, label %common.ret31, label %37

common.ret31:                                     ; preds = %34, %37
  ret void

37:                                               ; preds = %34
  tail call fastcc void @freeCallReplyInternal(ptr noundef nonnull %36)
  %38 = load ptr, ptr %35, align 8, !tbaa !23
  tail call void @zfree(ptr noundef %38) #8
  br label %common.ret31
}